; Function Attrs: mustprogress nounwind uwtable
define hidden void @_ZN6Symbol21metaspace_pointers_doEP16MetaspaceClosure(ptr noundef nonnull align 4 dereferenceable(8) %0, ptr nocapture noundef readnone %1) local_unnamed_addr #1 align 2 {
  %3 = alloca %class.LogStream, align 8
  %4 = load volatile ptr, ptr getelementptr inbounds (i8, ptr @_ZN16LogTagSetMappingILN6LogTag4typeE14ELS1_0ELS1_0ELS1_0ELS1_0ELS1_0EE7_tagsetE, i64 48), align 8
  %.not = icmp eq ptr %4, null
  br i1 %.not, label %12, label %5

5:                                                ; preds = %2
  call void @_ZN12outputStreamC2Eb(ptr noundef nonnull align 8 dereferenceable(56) %3, i1 noundef zeroext false) #17
  store ptr getelementptr inbounds inrange(-16, 40) (i8, ptr @_ZTV17LogStreamImplBase, i64 16), ptr %3, align 8
  %6 = getelementptr inbounds i8, ptr %3, i64 56
  call void @_ZN17LogStreamImplBase10LineBufferC1Ev(ptr noundef nonnull align 8 dereferenceable(88) %6) #17
  %7 = getelementptr inbounds i8, ptr %3, i64 144
  store i32 1, ptr %7, align 8
  %.sroa.21.0..sroa_idx.i.i = getelementptr inbounds i8, ptr %3, i64 152
  store ptr @_ZN16LogTagSetMappingILN6LogTag4typeE14ELS1_0ELS1_0ELS1_0ELS1_0ELS1_0EE7_tagsetE, ptr %.sroa.21.0..sroa_idx.i.i, align 8
  store ptr getelementptr inbounds inrange(-16, 40) (i8, ptr @_ZTV9LogStream, i64 16), ptr %3, align 8
  call void (ptr, ptr, ...) @_ZN12outputStream5printEPKcz(ptr noundef nonnull align 8 dereferenceable(56) %3, ptr noundef nonnull @.str.9, ptr noundef nonnull %0) #17
  call void @_ZN12outputStream9print_rawEPKcm(ptr noundef nonnull align 8 dereferenceable(56) %3, ptr noundef nonnull @.str.11, i64 noundef 1) #17
  %8 = getelementptr inbounds i8, ptr %0, i64 6
  %9 = getelementptr inbounds i8, ptr %0, i64 4
  %10 = load i16, ptr %9, align 4
  %11 = zext i16 %10 to i64
  call void @_ZN12outputStream9print_rawEPKcm(ptr noundef nonnull align 8 dereferenceable(56) %3, ptr noundef nonnull %8, i64 noundef %11) #17
  call void @_ZN12outputStream9print_rawEPKcm(ptr noundef nonnull align 8 dereferenceable(56) %3, ptr noundef nonnull @.str.11, i64 noundef 1) #17
  call void @_ZN12outputStream2crEv(ptr noundef nonnull align 8 dereferenceable(56) %3) #17
  call void @_ZN13LogStreamImplI15LogTargetHandleED2Ev(ptr noundef nonnull align 8 dereferenceable(160) %3) #17
  br label %12

12:                                               ; preds = %5, %2
  ret void
}